#include <math.h>
#include <stdio.h>
#include <stdlib.h>
#include <string.h>

int f(int n){
	if(n==1){
		return 1;
	}
	else if(n==2){
		return 2;
	}
	else{
		return f(n-2)+f(n-1);
	}
}
double he(int n)
{
	int i;
	double sum=0;
	for(i=1;i<=n;i++){
		sum+=(double)f(i+1)/f(i);
	}
	return sum;
}

int main(){
	int m,s[100];
	int i,j;

	scanf("%d",&m);
	for(i=0;i<m;i++)
	{
		scanf("%d",&s[i]);
	}

	for(j=0;j<m;j++){
		printf("%.3lf\n",he(s[j]));
	}

	return 0;
}
