; ModuleID = '29/225.c'
source_filename = "29/225.c"
target datalayout = "e-m:e-p270:32:32-p271:32:32-p272:64:64-i64:64-f80:128-n8:16:32:64-S128"
target triple = "x86_64-pc-linux-gnu"

@.str = private unnamed_addr constant [3 x i8] c"%d\00", align 1
@.str.1 = private unnamed_addr constant [7 x i8] c"%.3lf\0A\00", align 1

; Function Attrs: noinline nounwind uwtable
define dso_local i32 @f(i32 %0) #0 {
  %2 = alloca i32, align 4
  %3 = alloca i32, align 4
  store i32 %0, i32* %3, align 4
  %4 = load i32, i32* %3, align 4
  %5 = icmp eq i32 %4, 1
  br i1 %5, label %6, label %7

6:                                                ; preds = %1
  store i32 1, i32* %2, align 4
  br label %19

7:                                                ; preds = %1
  %8 = load i32, i32* %3, align 4
  %9 = icmp eq i32 %8, 2
  br i1 %9, label %10, label %11

10:                                               ; preds = %7
  store i32 2, i32* %2, align 4
  br label %19

11:                                               ; preds = %7
  %12 = load i32, i32* %3, align 4
  %13 = sub nsw i32 %12, 2
  %14 = call i32 @f(i32 %13)
  %15 = load i32, i32* %3, align 4
  %16 = sub nsw i32 %15, 1
  %17 = call i32 @f(i32 %16)
  %18 = add nsw i32 %14, %17
  store i32 %18, i32* %2, align 4
  br label %19

19:                                               ; preds = %11, %10, %6
  %20 = load i32, i32* %2, align 4
  ret i32 %20
}

; Function Attrs: noinline nounwind uwtable
define dso_local double @he(i32 %0) #0 {
  %2 = alloca i32, align 4
  %3 = alloca i32, align 4
  %4 = alloca double, align 8
  store i32 %0, i32* %2, align 4
  store double 0.000000e+00, double* %4, align 8
  store i32 1, i32* %3, align 4
  br label %5

5:                                                ; preds = %20, %1
  %6 = load i32, i32* %3, align 4
  %7 = load i32, i32* %2, align 4
  %8 = icmp sle i32 %6, %7
  br i1 %8, label %9, label %23

9:                                                ; preds = %5
  %10 = load i32, i32* %3, align 4
  %11 = add nsw i32 %10, 1
  %12 = call i32 @f(i32 %11)
  %13 = sitofp i32 %12 to double
  %14 = load i32, i32* %3, align 4
  %15 = call i32 @f(i32 %14)
  %16 = sitofp i32 %15 to double
  %17 = fdiv double %13, %16
  %18 = load double, double* %4, align 8
  %19 = fadd double %18, %17
  store double %19, double* %4, align 8
  br label %20

20:                                               ; preds = %9
  %21 = load i32, i32* %3, align 4
  %22 = add nsw i32 %21, 1
  store i32 %22, i32* %3, align 4
  br label %5

23:                                               ; preds = %5
  %24 = load double, double* %4, align 8
  ret double %24
}

; Function Attrs: noinline nounwind uwtable
define dso_local i32 @main() #0 {
  %1 = alloca i32, align 4
  %2 = alloca i32, align 4
  %3 = alloca [100 x i32], align 16
  %4 = alloca i32, align 4
  %5 = alloca i32, align 4
  store i32 0, i32* %1, align 4
  %6 = call i32 (i8*, ...) @__isoc99_scanf(i8* getelementptr inbounds ([3 x i8], [3 x i8]* @.str, i64 0, i64 0), i32* %2)
  store i32 0, i32* %4, align 4
  br label %7

7:                                                ; preds = %16, %0
  %8 = load i32, i32* %4, align 4
  %9 = load i32, i32* %2, align 4
  %10 = icmp slt i32 %8, %9
  br i1 %10, label %11, label %19

11:                                               ; preds = %7
  %12 = load i32, i32* %4, align 4
  %13 = sext i32 %12 to i64
  %14 = getelementptr inbounds [100 x i32], [100 x i32]* %3, i64 0, i64 %13
  %15 = call i32 (i8*, ...) @__isoc99_scanf(i8* getelementptr inbounds ([3 x i8], [3 x i8]* @.str, i64 0, i64 0), i32* %14)
  br label %16

16:                                               ; preds = %11
  %17 = load i32, i32* %4, align 4
  %18 = add nsw i32 %17, 1
  store i32 %18, i32* %4, align 4
  br label %7

19:                                               ; preds = %7
  store i32 0, i32* %5, align 4
  br label %20

20:                                               ; preds = %31, %19
  %21 = load i32, i32* %5, align 4
  %22 = load i32, i32* %2, align 4
  %23 = icmp slt i32 %21, %22
  br i1 %23, label %24, label %34

24:                                               ; preds = %20
  %25 = load i32, i32* %5, align 4
  %26 = sext i32 %25 to i64
  %27 = getelementptr inbounds [100 x i32], [100 x i32]* %3, i64 0, i64 %26
  %28 = load i32, i32* %27, align 4
  %29 = call double @he(i32 %28)
  %30 = call i32 (i8*, ...) @printf(i8* getelementptr inbounds ([7 x i8], [7 x i8]* @.str.1, i64 0, i64 0), double %29)
  br label %31

31:                                               ; preds = %24
  %32 = load i32, i32* %5, align 4
  %33 = add nsw i32 %32, 1
  store i32 %33, i32* %5, align 4
  br label %20

34:                                               ; preds = %20
  ret i32 0
}

declare dso_local i32 @__isoc99_scanf(i8*, ...) #1

declare dso_local i32 @printf(i8*, ...) #1


!llvm.module.flags = !{!0}
!llvm.ident = !{!1}

!0 = !{i32 1, !"wchar_size", i32 4}
!1 = !{!"clang version 10.0.0-4ubuntu1 "}
